target datalayout = "e-m:e-p270:32:32-p271:32:32-p272:64:64-i64:64-i128:128-f80:128-n8:16:32:64-S128"
target triple = "x86_64-pc-linux-gnu"

%struct.FunctionCallInfoBaseData = type { ptr, ptr, ptr, i32, i8, i16, [0 x %struct.NullableDatum] }
%struct.NullableDatum = type { i64, i8 }
%struct.JsonbInState = type { ptr, ptr, i8, ptr }
%struct.JsonbValue = type { i32, %union.anon }
%union.anon = type { %struct.anon.2 }
%struct.anon.2 = type { i32, ptr, i8 }
%struct.anon.1 = type { i32, ptr }
%struct.ArrayType = type { i32, i32, i32, i32 }

@.str.1 = private unnamed_addr constant [8 x i8] c"jsonb.c\00", align 1
@.str.21 = private unnamed_addr constant [40 x i8] c"array must have even number of elements\00", align 1
@__func__.jsonb_object = private unnamed_addr constant [13 x i8] c"jsonb_object\00", align 1
@.str.22 = private unnamed_addr constant [28 x i8] c"array must have two columns\00", align 1
@.str.23 = private unnamed_addr constant [33 x i8] c"wrong number of array subscripts\00", align 1
@.str.24 = private unnamed_addr constant [38 x i8] c"null value not allowed for object key\00", align 1

; Function Attrs: inlinehint nounwind uwtable
define internal i64 @PointerGetDatum(ptr noundef %0) #2 {
  %2 = alloca ptr, align 8
  store ptr %0, ptr %2, align 8
  %3 = load ptr, ptr %2, align 8
  %4 = ptrtoint ptr %3 to i64
  ret i64 %4
}

; Function Attrs: inlinehint nounwind uwtable
define internal ptr @DatumGetPointer(i64 noundef %0) #2 {
  %2 = alloca i64, align 8
  store i64 %0, ptr %2, align 8
  %3 = load i64, ptr %2, align 8
  %4 = inttoptr i64 %3 to ptr
  ret ptr %4
}

; Function Attrs: nounwind uwtable
define dso_local i64 @jsonb_object(ptr noundef %0) #0 {
  %2 = alloca ptr, align 8
  %3 = alloca ptr, align 8
  %4 = alloca i32, align 4
  %5 = alloca ptr, align 8
  %6 = alloca ptr, align 8
  %7 = alloca i32, align 4
  %8 = alloca i32, align 4
  %9 = alloca i32, align 4
  %10 = alloca %struct.JsonbInState, align 8
  %11 = alloca %struct.JsonbValue, align 8
  %12 = alloca ptr, align 8
  %13 = alloca i32, align 4
  store ptr %0, ptr %2, align 8
  call void @llvm.lifetime.start.p0(i64 8, ptr %3) #8
  %14 = load ptr, ptr %2, align 8
  %15 = getelementptr inbounds nuw %struct.FunctionCallInfoBaseData, ptr %14, i32 0, i32 6
  %16 = getelementptr inbounds [0 x %struct.NullableDatum], ptr %15, i64 0, i64 0
  %17 = getelementptr inbounds nuw %struct.NullableDatum, ptr %16, i32 0, i32 0
  %18 = load i64, ptr %17, align 8
  %19 = call ptr @DatumGetPointer(i64 noundef %18)
  %20 = call ptr @pg_detoast_datum(ptr noundef %19)
  store ptr %20, ptr %3, align 8
  call void @llvm.lifetime.start.p0(i64 4, ptr %4) #8
  %21 = load ptr, ptr %3, align 8
  %22 = getelementptr inbounds nuw %struct.ArrayType, ptr %21, i32 0, i32 1
  %23 = load i32, ptr %22, align 4
  store i32 %23, ptr %4, align 4
  call void @llvm.lifetime.start.p0(i64 8, ptr %5) #8
  call void @llvm.lifetime.start.p0(i64 8, ptr %6) #8
  call void @llvm.lifetime.start.p0(i64 4, ptr %7) #8
  call void @llvm.lifetime.start.p0(i64 4, ptr %8) #8
  call void @llvm.lifetime.start.p0(i64 4, ptr %9) #8
  call void @llvm.lifetime.start.p0(i64 32, ptr %10) #8
  call void @llvm.memset.p0.i64(ptr align 8 %10, i8 0, i64 32, i1 false)
  %24 = getelementptr inbounds nuw %struct.JsonbInState, ptr %10, i32 0, i32 0
  %25 = call ptr @pushJsonbValue(ptr noundef %24, i32 noundef 6, ptr noundef null)
  %26 = load i32, ptr %4, align 4
  switch i32 %26, label %67 [
    i32 0, label %27
    i32 1, label %28
    i32 2, label %48
  ]

27:                                               ; preds = %1
  br label %167

28:                                               ; preds = %1
  %29 = load ptr, ptr %3, align 8
  %30 = getelementptr inbounds nuw i8, ptr %29, i64 16
  %31 = getelementptr inbounds i32, ptr %30, i64 0
  %32 = load i32, ptr %31, align 4
  %33 = srem i32 %32, 2
  %34 = icmp ne i32 %33, 0
  br i1 %34, label %35, label %47

35:                                               ; preds = %28
  br label %36

36:                                               ; preds = %35
  br i1 true, label %37, label %39

37:                                               ; preds = %36
  %38 = call zeroext i1 @errstart_cold(i32 noundef 21, ptr noundef null) #10
  br i1 %38, label %41, label %44

39:                                               ; preds = %36
  %40 = call zeroext i1 @errstart(i32 noundef 21, ptr noundef null)
  br i1 %40, label %41, label %44

41:                                               ; preds = %39, %37
  %42 = call i32 @errcode(i32 noundef 352845954)
  %43 = call i32 (ptr, ...) @errmsg(ptr noundef @.str.21)
  call void @errfinish(ptr noundef @.str.1, i32 noundef 1304, ptr noundef @__func__.jsonb_object)
  br label %44

44:                                               ; preds = %41, %39, %37
  unreachable

45:                                               ; No predecessors!
  br label %46

46:                                               ; preds = %45
  br label %47

47:                                               ; preds = %46, %28
  br label %79

48:                                               ; preds = %1
  %49 = load ptr, ptr %3, align 8
  %50 = getelementptr inbounds nuw i8, ptr %49, i64 16
  %51 = getelementptr inbounds i32, ptr %50, i64 1
  %52 = load i32, ptr %51, align 4
  %53 = icmp ne i32 %52, 2
  br i1 %53, label %54, label %66

54:                                               ; preds = %48
  br label %55

55:                                               ; preds = %54
  br i1 true, label %56, label %58

56:                                               ; preds = %55
  %57 = call zeroext i1 @errstart_cold(i32 noundef 21, ptr noundef null) #10
  br i1 %57, label %60, label %63

58:                                               ; preds = %55
  %59 = call zeroext i1 @errstart(i32 noundef 21, ptr noundef null)
  br i1 %59, label %60, label %63

60:                                               ; preds = %58, %56
  %61 = call i32 @errcode(i32 noundef 352845954)
  %62 = call i32 (ptr, ...) @errmsg(ptr noundef @.str.22)
  call void @errfinish(ptr noundef @.str.1, i32 noundef 1311, ptr noundef @__func__.jsonb_object)
  br label %63

63:                                               ; preds = %60, %58, %56
  unreachable

64:                                               ; No predecessors!
  br label %65

65:                                               ; preds = %64
  br label %66

66:                                               ; preds = %65, %48
  br label %79

67:                                               ; preds = %1
  br label %68

68:                                               ; preds = %67
  br i1 true, label %69, label %71

69:                                               ; preds = %68
  %70 = call zeroext i1 @errstart_cold(i32 noundef 21, ptr noundef null) #10
  br i1 %70, label %73, label %76

71:                                               ; preds = %68
  %72 = call zeroext i1 @errstart(i32 noundef 21, ptr noundef null)
  br i1 %72, label %73, label %76

73:                                               ; preds = %71, %69
  %74 = call i32 @errcode(i32 noundef 352845954)
  %75 = call i32 (ptr, ...) @errmsg(ptr noundef @.str.23)
  call void @errfinish(ptr noundef @.str.1, i32 noundef 1317, ptr noundef @__func__.jsonb_object)
  br label %76

76:                                               ; preds = %73, %71, %69
  unreachable

77:                                               ; No predecessors!
  br label %78

78:                                               ; preds = %77
  br label %79

79:                                               ; preds = %78, %66, %47
  %80 = load ptr, ptr %3, align 8
  call void @deconstruct_array_builtin(ptr noundef %80, i32 noundef 25, ptr noundef %5, ptr noundef %6, ptr noundef %7)
  %81 = load i32, ptr %7, align 4
  %82 = sdiv i32 %81, 2
  store i32 %82, ptr %8, align 4
  store i32 0, ptr %9, align 4
  br label %83

83:                                               ; preds = %161, %79
  %84 = load i32, ptr %9, align 4
  %85 = load i32, ptr %8, align 4
  %86 = icmp slt i32 %84, %85
  br i1 %86, label %87, label %164

87:                                               ; preds = %83
  call void @llvm.lifetime.start.p0(i64 32, ptr %11) #8
  call void @llvm.lifetime.start.p0(i64 8, ptr %12) #8
  call void @llvm.lifetime.start.p0(i64 4, ptr %13) #8
  %88 = load ptr, ptr %6, align 8
  %89 = load i32, ptr %9, align 4
  %90 = mul i32 %89, 2
  %91 = sext i32 %90 to i64
  %92 = getelementptr inbounds i8, ptr %88, i64 %91
  %93 = load i8, ptr %92, align 1, !range !4, !noundef !5
  %94 = trunc i8 %93 to i1
  br i1 %94, label %95, label %107

95:                                               ; preds = %87
  br label %96

96:                                               ; preds = %95
  br i1 true, label %97, label %99

97:                                               ; preds = %96
  %98 = call zeroext i1 @errstart_cold(i32 noundef 21, ptr noundef null) #10
  br i1 %98, label %101, label %104

99:                                               ; preds = %96
  %100 = call zeroext i1 @errstart(i32 noundef 21, ptr noundef null)
  br i1 %100, label %101, label %104

101:                                              ; preds = %99, %97
  %102 = call i32 @errcode(i32 noundef 67108994)
  %103 = call i32 (ptr, ...) @errmsg(ptr noundef @.str.24)
  call void @errfinish(ptr noundef @.str.1, i32 noundef 1333, ptr noundef @__func__.jsonb_object)
  br label %104

104:                                              ; preds = %101, %99, %97
  unreachable

105:                                              ; No predecessors!
  br label %106

106:                                              ; preds = %105
  br label %107

107:                                              ; preds = %106, %87
  %108 = load ptr, ptr %5, align 8
  %109 = load i32, ptr %9, align 4
  %110 = mul i32 %109, 2
  %111 = sext i32 %110 to i64
  %112 = getelementptr inbounds i64, ptr %108, i64 %111
  %113 = load i64, ptr %112, align 8
  %114 = call ptr @DatumGetPointer(i64 noundef %113)
  %115 = call ptr @text_to_cstring(ptr noundef %114)
  store ptr %115, ptr %12, align 8
  %116 = load ptr, ptr %12, align 8
  %117 = call i64 @strlen(ptr noundef %116) #9
  %118 = trunc i64 %117 to i32
  store i32 %118, ptr %13, align 4
  %119 = getelementptr inbounds nuw %struct.JsonbValue, ptr %11, i32 0, i32 0
  store i32 1, ptr %119, align 8
  %120 = load i32, ptr %13, align 4
  %121 = getelementptr inbounds nuw %struct.JsonbValue, ptr %11, i32 0, i32 1
  %122 = getelementptr inbounds nuw %struct.anon.1, ptr %121, i32 0, i32 0
  store i32 %120, ptr %122, align 8
  %123 = load ptr, ptr %12, align 8
  %124 = getelementptr inbounds nuw %struct.JsonbValue, ptr %11, i32 0, i32 1
  %125 = getelementptr inbounds nuw %struct.anon.1, ptr %124, i32 0, i32 1
  store ptr %123, ptr %125, align 8
  %126 = getelementptr inbounds nuw %struct.JsonbInState, ptr %10, i32 0, i32 0
  %127 = call ptr @pushJsonbValue(ptr noundef %126, i32 noundef 1, ptr noundef %11)
  %128 = load ptr, ptr %6, align 8
  %129 = load i32, ptr %9, align 4
  %130 = mul i32 %129, 2
  %131 = add i32 %130, 1
  %132 = sext i32 %131 to i64
  %133 = getelementptr inbounds i8, ptr %128, i64 %132
  %134 = load i8, ptr %133, align 1, !range !4, !noundef !5
  %135 = trunc i8 %134 to i1
  br i1 %135, label %136, label %138

136:                                              ; preds = %107
  %137 = getelementptr inbounds nuw %struct.JsonbValue, ptr %11, i32 0, i32 0
  store i32 0, ptr %137, align 8
  br label %158

138:                                              ; preds = %107
  %139 = load ptr, ptr %5, align 8
  %140 = load i32, ptr %9, align 4
  %141 = mul i32 %140, 2
  %142 = add i32 %141, 1
  %143 = sext i32 %142 to i64
  %144 = getelementptr inbounds i64, ptr %139, i64 %143
  %145 = load i64, ptr %144, align 8
  %146 = call ptr @DatumGetPointer(i64 noundef %145)
  %147 = call ptr @text_to_cstring(ptr noundef %146)
  store ptr %147, ptr %12, align 8
  %148 = load ptr, ptr %12, align 8
  %149 = call i64 @strlen(ptr noundef %148) #9
  %150 = trunc i64 %149 to i32
  store i32 %150, ptr %13, align 4
  %151 = getelementptr inbounds nuw %struct.JsonbValue, ptr %11, i32 0, i32 0
  store i32 1, ptr %151, align 8
  %152 = load i32, ptr %13, align 4
  %153 = getelementptr inbounds nuw %struct.JsonbValue, ptr %11, i32 0, i32 1
  %154 = getelementptr inbounds nuw %struct.anon.1, ptr %153, i32 0, i32 0
  store i32 %152, ptr %154, align 8
  %155 = load ptr, ptr %12, align 8
  %156 = getelementptr inbounds nuw %struct.JsonbValue, ptr %11, i32 0, i32 1
  %157 = getelementptr inbounds nuw %struct.anon.1, ptr %156, i32 0, i32 1
  store ptr %155, ptr %157, align 8
  br label %158

158:                                              ; preds = %138, %136
  %159 = getelementptr inbounds nuw %struct.JsonbInState, ptr %10, i32 0, i32 0
  %160 = call ptr @pushJsonbValue(ptr noundef %159, i32 noundef 2, ptr noundef %11)
  call void @llvm.lifetime.end.p0(i64 4, ptr %13) #8
  call void @llvm.lifetime.end.p0(i64 8, ptr %12) #8
  call void @llvm.lifetime.end.p0(i64 32, ptr %11) #8
  br label %161

161:                                              ; preds = %158
  %162 = load i32, ptr %9, align 4
  %163 = add i32 %162, 1
  store i32 %163, ptr %9, align 4
  br label %83, !llvm.loop !11

164:                                              ; preds = %83
  %165 = load ptr, ptr %5, align 8
  call void @pfree(ptr noundef %165)
  %166 = load ptr, ptr %6, align 8
  call void @pfree(ptr noundef %166)
  br label %167

167:                                              ; preds = %164, %27
  %168 = getelementptr inbounds nuw %struct.JsonbInState, ptr %10, i32 0, i32 0
  %169 = call ptr @pushJsonbValue(ptr noundef %168, i32 noundef 7, ptr noundef null)
  %170 = getelementptr inbounds nuw %struct.JsonbInState, ptr %10, i32 0, i32 1
  store ptr %169, ptr %170, align 8
  %171 = getelementptr inbounds nuw %struct.JsonbInState, ptr %10, i32 0, i32 1
  %172 = load ptr, ptr %171, align 8
  %173 = call ptr @JsonbValueToJsonb(ptr noundef %172)
  %174 = call i64 @PointerGetDatum(ptr noundef %173)
  call void @llvm.lifetime.end.p0(i64 32, ptr %10) #8
  call void @llvm.lifetime.end.p0(i64 4, ptr %9) #8
  call void @llvm.lifetime.end.p0(i64 4, ptr %8) #8
  call void @llvm.lifetime.end.p0(i64 4, ptr %7) #8
  call void @llvm.lifetime.end.p0(i64 8, ptr %6) #8
  call void @llvm.lifetime.end.p0(i64 8, ptr %5) #8
  call void @llvm.lifetime.end.p0(i64 4, ptr %4) #8
  call void @llvm.lifetime.end.p0(i64 8, ptr %3) #8
  ret i64 %174
}