; Function Attrs: nounwind uwtable
define dso_local i64 @jsonb_object(ptr noundef readonly captures(none) %0) local_unnamed_addr #0 {
  %2 = alloca ptr, align 8
  %3 = alloca ptr, align 8
  %4 = alloca i32, align 4
  %5 = alloca %struct.JsonbInState, align 8
  %6 = alloca %struct.JsonbValue, align 8
  %7 = getelementptr inbounds nuw i8, ptr %0, i64 32
  %8 = load i64, ptr %7, align 8
  %9 = inttoptr i64 %8 to ptr
  %10 = tail call ptr @pg_detoast_datum(ptr noundef %9) #11
  %11 = getelementptr inbounds nuw i8, ptr %10, i64 4
  %12 = load i32, ptr %11, align 4
  call void @llvm.lifetime.start.p0(i64 8, ptr nonnull %2) #11
  call void @llvm.lifetime.start.p0(i64 8, ptr nonnull %3) #11
  call void @llvm.lifetime.start.p0(i64 4, ptr nonnull %4) #11
  call void @llvm.lifetime.start.p0(i64 32, ptr nonnull %5) #11
  call void @llvm.memset.p0.i64(ptr noundef nonnull align 8 dereferenceable(32) %5, i8 0, i64 32, i1 false)
  %13 = call ptr @pushJsonbValue(ptr noundef nonnull %5, i32 noundef 6, ptr noundef null) #11
  switch i32 %12, label %29 [
    i32 0, label %75
    i32 1, label %14
    i32 2, label %22
  ]

14:                                               ; preds = %1
  %15 = getelementptr inbounds nuw i8, ptr %10, i64 16
  %16 = load i32, ptr %15, align 4
  %17 = and i32 %16, 1
  %.not18 = icmp eq i32 %17, 0
  br i1 %.not18, label %33, label %18

18:                                               ; preds = %14
  %19 = call zeroext i1 @errstart_cold(i32 noundef 21, ptr noundef null) #12
  call void @llvm.assume(i1 %19)
  %20 = call i32 @errcode(i32 noundef 352845954) #11
  %21 = call i32 (ptr, ...) @errmsg(ptr noundef nonnull @.str.21) #11
  call void @errfinish(ptr noundef nonnull @.str.1, i32 noundef 1304, ptr noundef nonnull @__func__.jsonb_object) #11
  unreachable

22:                                               ; preds = %1
  %23 = getelementptr inbounds nuw i8, ptr %10, i64 20
  %24 = load i32, ptr %23, align 4
  %.not = icmp eq i32 %24, 2
  br i1 %.not, label %33, label %25

25:                                               ; preds = %22
  %26 = call zeroext i1 @errstart_cold(i32 noundef 21, ptr noundef null) #12
  call void @llvm.assume(i1 %26)
  %27 = call i32 @errcode(i32 noundef 352845954) #11
  %28 = call i32 (ptr, ...) @errmsg(ptr noundef nonnull @.str.22) #11
  call void @errfinish(ptr noundef nonnull @.str.1, i32 noundef 1311, ptr noundef nonnull @__func__.jsonb_object) #11
  unreachable

29:                                               ; preds = %1
  %30 = call zeroext i1 @errstart_cold(i32 noundef 21, ptr noundef null) #12
  call void @llvm.assume(i1 %30)
  %31 = call i32 @errcode(i32 noundef 352845954) #11
  %32 = call i32 (ptr, ...) @errmsg(ptr noundef nonnull @.str.23) #11
  call void @errfinish(ptr noundef nonnull @.str.1, i32 noundef 1317, ptr noundef nonnull @__func__.jsonb_object) #11
  unreachable

33:                                               ; preds = %22, %14
  call void @deconstruct_array_builtin(ptr noundef nonnull %10, i32 noundef 25, ptr noundef nonnull %2, ptr noundef nonnull %3, ptr noundef nonnull %4) #11
  %34 = load i32, ptr %4, align 4
  %35 = icmp sgt i32 %34, 1
  br i1 %35, label %.lr.ph, label %._crit_edge

.lr.ph:                                           ; preds = %33
  %36 = lshr i32 %34, 1
  %37 = getelementptr inbounds nuw i8, ptr %6, i64 8
  %38 = getelementptr inbounds nuw i8, ptr %6, i64 16
  %wide.trip.count = zext nneg i32 %36 to i64
  br label %39

39:                                               ; preds = %.lr.ph, %71
  %indvars.iv = phi i64 [ 0, %.lr.ph ], [ %indvars.iv.next, %71 ]
  call void @llvm.lifetime.start.p0(i64 32, ptr nonnull %6) #11
  %40 = load ptr, ptr %3, align 8
  %41 = shl nuw i64 %indvars.iv, 1
  %42 = getelementptr inbounds i8, ptr %40, i64 %41
  %43 = load i8, ptr %42, align 1, !range !7, !noundef !8
  %44 = trunc nuw i8 %43 to i1
  br i1 %44, label %45, label %49

45:                                               ; preds = %39
  %46 = call zeroext i1 @errstart_cold(i32 noundef 21, ptr noundef null) #12
  call void @llvm.assume(i1 %46)
  %47 = call i32 @errcode(i32 noundef 67108994) #11
  %48 = call i32 (ptr, ...) @errmsg(ptr noundef nonnull @.str.24) #11
  call void @errfinish(ptr noundef nonnull @.str.1, i32 noundef 1333, ptr noundef nonnull @__func__.jsonb_object) #11
  unreachable

49:                                               ; preds = %39
  %50 = load ptr, ptr %2, align 8
  %51 = getelementptr inbounds i64, ptr %50, i64 %41
  %52 = load i64, ptr %51, align 8
  %53 = inttoptr i64 %52 to ptr
  %54 = call ptr @text_to_cstring(ptr noundef %53) #11
  %55 = call i64 @strlen(ptr noundef nonnull dereferenceable(1) %54) #10
  %56 = trunc i64 %55 to i32
  store i32 1, ptr %6, align 8
  store i32 %56, ptr %37, align 8
  store ptr %54, ptr %38, align 8
  %57 = call ptr @pushJsonbValue(ptr noundef nonnull %5, i32 noundef 1, ptr noundef nonnull %6) #11
  %58 = load ptr, ptr %3, align 8
  %59 = or disjoint i64 %41, 1
  %60 = getelementptr inbounds i8, ptr %58, i64 %59
  %61 = load i8, ptr %60, align 1, !range !7, !noundef !8
  %62 = trunc nuw i8 %61 to i1
  br i1 %62, label %71, label %63

63:                                               ; preds = %49
  %64 = load ptr, ptr %2, align 8
  %65 = getelementptr inbounds i64, ptr %64, i64 %59
  %66 = load i64, ptr %65, align 8
  %67 = inttoptr i64 %66 to ptr
  %68 = call ptr @text_to_cstring(ptr noundef %67) #11
  %69 = call i64 @strlen(ptr noundef nonnull dereferenceable(1) %68) #10
  %70 = trunc i64 %69 to i32
  store i32 %70, ptr %37, align 8
  store ptr %68, ptr %38, align 8
  br label %71

71:                                               ; preds = %49, %63
  %.sink = phi i32 [ 1, %63 ], [ 0, %49 ]
  store i32 %.sink, ptr %6, align 8
  %72 = call ptr @pushJsonbValue(ptr noundef nonnull %5, i32 noundef 2, ptr noundef nonnull %6) #11
  call void @llvm.lifetime.end.p0(i64 32, ptr nonnull %6) #11
  %indvars.iv.next = add nuw nsw i64 %indvars.iv, 1
  %exitcond.not = icmp eq i64 %indvars.iv.next, %wide.trip.count
  br i1 %exitcond.not, label %._crit_edge, label %39, !llvm.loop !15

._crit_edge:                                      ; preds = %71, %33
  %73 = load ptr, ptr %2, align 8
  call void @pfree(ptr noundef %73) #11
  %74 = load ptr, ptr %3, align 8
  call void @pfree(ptr noundef %74) #11
  br label %75

75:                                               ; preds = %1, %._crit_edge
  %76 = call ptr @pushJsonbValue(ptr noundef nonnull %5, i32 noundef 7, ptr noundef null) #11
  %77 = getelementptr inbounds nuw i8, ptr %5, i64 8
  store ptr %76, ptr %77, align 8
  %78 = call ptr @JsonbValueToJsonb(ptr noundef %76) #11
  %79 = ptrtoint ptr %78 to i64
  call void @llvm.lifetime.end.p0(i64 32, ptr nonnull %5) #11
  call void @llvm.lifetime.end.p0(i64 4, ptr nonnull %4) #11
  call void @llvm.lifetime.end.p0(i64 8, ptr nonnull %3) #11
  call void @llvm.lifetime.end.p0(i64 8, ptr nonnull %2) #11
  ret i64 %79
}